target datalayout = "e-m:e-p270:32:32-p271:32:32-p272:64:64-i64:64-i128:128-f80:128-n8:16:32:64-S128"
target triple = "x86_64-pc-linux-gnu"

%struct._value_string = type { i32, ptr }
%struct._address = type { i32, i32, ptr, ptr }
%struct._packet_info = type { ptr, ptr, i32, i32, %struct.nstime_t, %struct.nstime_t, %struct.nstime_t, i8, ptr, ptr, ptr, ptr, %struct._address, %struct._address, %struct._address, %struct._address, %struct._address, %struct._address, i32, ptr, i8, [3 x i8], %struct.anon, i32, i32, i32, i32, ptr, i8, ptr, ptr, i16, i16, i32, i32, i16, i32, i32, ptr, ptr, ptr, i8, i8, i16, i16, i16, i32, i16, i16, ptr, ptr, ptr, ptr, ptr, i32, i32 }
%struct.nstime_t = type { i64, i32 }
%struct.anon = type { i8, [3 x i8] }

@hf_tls_handshake_protocol = internal global i32 0, align 4
@ssl_31_handshake_type = external constant [0 x %struct._value_string], align 8
@.str.911 = private unnamed_addr constant [4 x i8] c"TLS\00", align 1
@ssl_version_short_names = external constant [0 x %struct._value_string], align 8
@.str.1032 = private unnamed_addr constant [28 x i8] c"Encrypted Handshake Message\00", align 1
@.str.1043 = private unnamed_addr constant [14 x i8] c"[%s Fragment]\00", align 1
@.str.1044 = private unnamed_addr constant [40 x i8] c"%s Record Layer: Handshake Protocol: %s\00", align 1
@.str.1045 = private unnamed_addr constant [12 x i8] c" (fragment)\00", align 1
@.str.1046 = private unnamed_addr constant [28 x i8] c"Multiple Handshake Messages\00", align 1
@.str.1047 = private unnamed_addr constant [23 x i8] c"Handshake Protocol: %s\00", align 1

; Function Attrs: null_pointer_is_valid sspstrong uwtable
define internal ptr @tls_show_handshake_details(ptr noundef %0, ptr noundef %1, i32 noundef %2, i8 noundef zeroext %3, i1 noundef zeroext %4, i1 noundef zeroext %5, i1 noundef zeroext %6, ptr noundef %7, i32 noundef %8, i32 noundef %9) #0 {
  %11 = alloca ptr, align 8
  %12 = alloca ptr, align 8
  %13 = alloca i32, align 4
  %14 = alloca i8, align 1
  %15 = alloca i8, align 1
  %16 = alloca i8, align 1
  %17 = alloca i8, align 1
  %18 = alloca ptr, align 8
  %19 = alloca i32, align 4
  %20 = alloca i32, align 4
  %21 = alloca ptr, align 8
  %22 = alloca ptr, align 8
  store ptr %0, ptr %11, align 8
  store ptr %1, ptr %12, align 8
  store i32 %2, ptr %13, align 4
  store i8 %3, ptr %14, align 1
  %23 = zext i1 %4 to i8
  store i8 %23, ptr %15, align 1
  %24 = zext i1 %5 to i8
  store i8 %24, ptr %16, align 1
  %25 = zext i1 %6 to i8
  store i8 %25, ptr %17, align 1
  store ptr %7, ptr %18, align 8
  store i32 %8, ptr %19, align 4
  store i32 %9, ptr %20, align 4
  call void @llvm.lifetime.start.p0(i64 8, ptr %21) #18
  store ptr @.str.1032, ptr %21, align 8
  %26 = load i8, ptr %15, align 1, !range !6, !noundef !7
  %27 = trunc i8 %26 to i1
  br i1 %27, label %33, label %28

28:                                               ; preds = %10
  %29 = load i8, ptr %14, align 1
  %30 = zext i8 %29 to i32
  %31 = load ptr, ptr %21, align 8
  %32 = call ptr @val_to_str_const(i32 noundef %30, ptr noundef @ssl_31_handshake_type, ptr noundef %31)
  store ptr %32, ptr %21, align 8
  br label %33

33:                                               ; preds = %28, %10
  %34 = load i8, ptr %17, align 1, !range !6, !noundef !7
  %35 = trunc i8 %34 to i1
  br i1 %35, label %36, label %41

36:                                               ; preds = %33
  %37 = load ptr, ptr %11, align 8
  %38 = getelementptr inbounds nuw %struct._packet_info, ptr %37, i32 0, i32 1
  %39 = load ptr, ptr %38, align 8
  %40 = load ptr, ptr %21, align 8
  call void @col_append_sep_str(ptr noundef %39, i32 noundef 25, ptr noundef null, ptr noundef %40)
  br label %50

41:                                               ; preds = %33
  %42 = load i8, ptr %16, align 1, !range !6, !noundef !7
  %43 = trunc i8 %42 to i1
  br i1 %43, label %44, label %49

44:                                               ; preds = %41
  %45 = load ptr, ptr %11, align 8
  %46 = getelementptr inbounds nuw %struct._packet_info, ptr %45, i32 0, i32 1
  %47 = load ptr, ptr %46, align 8
  %48 = load ptr, ptr %21, align 8
  call void (ptr, i32, ptr, ptr, ...) @col_append_sep_fstr(ptr noundef %47, i32 noundef 25, ptr noundef null, ptr noundef @.str.1043, ptr noundef %48)
  br label %49

49:                                               ; preds = %44, %41
  br label %50

50:                                               ; preds = %49, %36
  %51 = load i8, ptr %16, align 1, !range !6, !noundef !7
  %52 = trunc i8 %51 to i1
  br i1 %52, label %53, label %66

53:                                               ; preds = %50
  %54 = load ptr, ptr %12, align 8
  %55 = load i32, ptr %13, align 4
  %56 = call ptr @val_to_str_const(i32 noundef %55, ptr noundef @ssl_version_short_names, ptr noundef @.str.911)
  %57 = load ptr, ptr %21, align 8
  call void (ptr, ptr, ...) @proto_item_set_text(ptr noundef %54, ptr noundef @.str.1044, ptr noundef %56, ptr noundef %57)
  %58 = load i8, ptr %17, align 1, !range !6, !noundef !7
  %59 = trunc i8 %58 to i1
  br i1 %59, label %65, label %60

60:                                               ; preds = %53
  %61 = load i8, ptr %15, align 1, !range !6, !noundef !7
  %62 = trunc i8 %61 to i1
  br i1 %62, label %65, label %63

63:                                               ; preds = %60
  %64 = load ptr, ptr %12, align 8
  call void (ptr, ptr, ...) @proto_item_append_text(ptr noundef %64, ptr noundef @.str.1045)
  br label %65

65:                                               ; preds = %63, %60, %53
  br label %70

66:                                               ; preds = %50
  %67 = load ptr, ptr %12, align 8
  %68 = load i32, ptr %13, align 4
  %69 = call ptr @val_to_str_const(i32 noundef %68, ptr noundef @ssl_version_short_names, ptr noundef @.str.911)
  call void (ptr, ptr, ...) @proto_item_set_text(ptr noundef %67, ptr noundef @.str.1044, ptr noundef %69, ptr noundef @.str.1046)
  br label %70

70:                                               ; preds = %66, %65
  call void @llvm.lifetime.start.p0(i64 8, ptr %22) #18
  %71 = load ptr, ptr %12, align 8
  %72 = load i32, ptr @hf_tls_handshake_protocol, align 4
  %73 = load ptr, ptr %18, align 8
  %74 = load i32, ptr %19, align 4
  %75 = load i32, ptr %20, align 4
  %76 = call ptr @proto_tree_add_item(ptr noundef %71, i32 noundef %72, ptr noundef %73, i32 noundef %74, i32 noundef %75, i32 noundef 0)
  store ptr %76, ptr %22, align 8
  %77 = load ptr, ptr %22, align 8
  %78 = load ptr, ptr %21, align 8
  call void (ptr, ptr, ...) @proto_item_set_text(ptr noundef %77, ptr noundef @.str.1047, ptr noundef %78)
  %79 = load i8, ptr %17, align 1, !range !6, !noundef !7
  %80 = trunc i8 %79 to i1
  br i1 %80, label %86, label %81

81:                                               ; preds = %70
  %82 = load i8, ptr %15, align 1, !range !6, !noundef !7
  %83 = trunc i8 %82 to i1
  br i1 %83, label %86, label %84

84:                                               ; preds = %81
  %85 = load ptr, ptr %22, align 8
  call void (ptr, ptr, ...) @proto_item_append_text(ptr noundef %85, ptr noundef @.str.1045)
  br label %86

86:                                               ; preds = %84, %81, %70
  %87 = load ptr, ptr %22, align 8
  call void @llvm.lifetime.end.p0(i64 8, ptr %22) #18
  call void @llvm.lifetime.end.p0(i64 8, ptr %21) #18
  ret ptr %87
}