; Function Attrs: null_pointer_is_valid sspstrong uwtable
define internal fastcc noundef ptr @tls_show_handshake_details(ptr noundef readonly captures(none) %0, ptr noundef %1, i32 noundef range(i32 0, 65536) %2, i8 noundef zeroext %3, i1 noundef zeroext %4, i1 noundef zeroext %5, i1 noundef zeroext %6, ptr noundef %7, i32 noundef %8, i32 noundef %9) unnamed_addr #0 {
  br i1 %4, label %14, label %11

11:                                               ; preds = %10
  %12 = zext i8 %3 to i32
  %13 = tail call ptr @val_to_str_const(i32 noundef %12, ptr noundef nonnull @ssl_31_handshake_type, ptr noundef nonnull @.str.1032)
  br label %14

14:                                               ; preds = %11, %10
  %.0 = phi ptr [ @.str.1032, %10 ], [ %13, %11 ]
  br i1 %6, label %18, label %15

15:                                               ; preds = %14
  br i1 %5, label %.thread, label %.critedge

.thread:                                          ; preds = %15
  %16 = getelementptr inbounds nuw i8, ptr %0, i64 8
  %17 = load ptr, ptr %16, align 8
  tail call void (ptr, i32, ptr, ptr, ...) @col_append_sep_fstr(ptr noundef %17, i32 noundef 25, ptr noundef null, ptr noundef nonnull @.str.1043, ptr noundef %.0)
  br label %21

18:                                               ; preds = %14
  %19 = getelementptr inbounds nuw i8, ptr %0, i64 8
  %20 = load ptr, ptr %19, align 8
  tail call void @col_append_sep_str(ptr noundef %20, i32 noundef 25, ptr noundef null, ptr noundef %.0)
  br i1 %5, label %21, label %.critedge

21:                                               ; preds = %.thread, %18
  %22 = tail call ptr @val_to_str_const(i32 noundef %2, ptr noundef nonnull @ssl_version_short_names, ptr noundef nonnull @.str.911)
  tail call void (ptr, ptr, ...) @proto_item_set_text(ptr noundef %1, ptr noundef nonnull @.str.1044, ptr noundef %22, ptr noundef %.0)
  %brmerge = or i1 %4, %6
  br i1 %brmerge, label %25, label %23

23:                                               ; preds = %21
  tail call void (ptr, ptr, ...) @proto_item_append_text(ptr noundef %1, ptr noundef nonnull @.str.1045)
  br label %25

.critedge:                                        ; preds = %15, %18
  %24 = tail call ptr @val_to_str_const(i32 noundef %2, ptr noundef nonnull @ssl_version_short_names, ptr noundef nonnull @.str.911)
  tail call void (ptr, ptr, ...) @proto_item_set_text(ptr noundef %1, ptr noundef nonnull @.str.1044, ptr noundef %24, ptr noundef nonnull @.str.1046)
  %.pre = or i1 %4, %6
  br label %25

25:                                               ; preds = %21, %23, %.critedge
  %brmerge27.pre-phi = phi i1 [ true, %21 ], [ false, %23 ], [ %.pre, %.critedge ]
  %26 = load i32, ptr @hf_tls_handshake_protocol, align 4
  %27 = tail call ptr @proto_tree_add_item(ptr noundef %1, i32 noundef %26, ptr noundef %7, i32 noundef %8, i32 noundef %9, i32 noundef 0)
  tail call void (ptr, ptr, ...) @proto_item_set_text(ptr noundef %27, ptr noundef nonnull @.str.1047, ptr noundef %.0)
  br i1 %brmerge27.pre-phi, label %29, label %28

28:                                               ; preds = %25
  tail call void (ptr, ptr, ...) @proto_item_append_text(ptr noundef %27, ptr noundef nonnull @.str.1045)
  br label %29

29:                                               ; preds = %25, %28
  ret ptr %27
}